; Function Attrs: mustprogress uwtable
define dso_local void @_ZN28b3SortedOverlappingPairCacheC2Ev(ptr noundef nonnull align 8 dereferenceable(56) initializes((0, 8), (12, 20), (24, 33), (40, 42), (48, 56)) %0) unnamed_addr #0 align 2 personality ptr @__gxx_personality_v0 {
  store ptr getelementptr inbounds nuw inrange(-16, 128) (i8, ptr @_ZTV28b3SortedOverlappingPairCache, i64 16), ptr %0, align 8, !tbaa !4
  %2 = getelementptr inbounds nuw i8, ptr %0, i64 32
  store i8 1, ptr %2, align 8, !tbaa !7
  %3 = getelementptr inbounds nuw i8, ptr %0, i64 24
  store ptr null, ptr %3, align 8, !tbaa !15
  %4 = getelementptr inbounds nuw i8, ptr %0, i64 12
  store i32 0, ptr %4, align 4, !tbaa !16
  %5 = getelementptr inbounds nuw i8, ptr %0, i64 16
  store i32 0, ptr %5, align 8, !tbaa !17
  %6 = getelementptr inbounds nuw i8, ptr %0, i64 40
  store i8 0, ptr %6, align 8, !tbaa !60
  %7 = getelementptr inbounds nuw i8, ptr %0, i64 41
  store i8 1, ptr %7, align 1, !tbaa !61
  %8 = getelementptr inbounds nuw i8, ptr %0, i64 48
  store ptr null, ptr %8, align 8, !tbaa !57
  %9 = invoke noundef ptr @_Z22b3AlignedAllocInternalmi(i64 noundef 32, i32 noundef 16)
          to label %.noexc unwind label %23

.noexc:                                           ; preds = %1
  %10 = icmp eq ptr %9, null
  br i1 %10, label %_ZNK20b3AlignedObjectArrayI6b3Int4E4copyEiiPS0_.exit15.i, label %.split.i

.split.i:                                         ; preds = %.noexc
  %11 = load i32, ptr %4, align 4, !tbaa !16
  %12 = icmp sgt i32 %11, 0
  br i1 %12, label %.lr.ph.i.i, label %_ZNK20b3AlignedObjectArrayI6b3Int4E4copyEiiPS0_.exit.i

.lr.ph.i.i:                                       ; preds = %.split.i
  %wide.trip.count.i.i = zext nneg i32 %11 to i64
  br label %13

13:                                               ; preds = %13, %.lr.ph.i.i
  %indvars.iv.i.i = phi i64 [ 0, %.lr.ph.i.i ], [ %indvars.iv.next.i.i, %13 ]
  %14 = getelementptr inbounds nuw %struct.b3Int4, ptr %9, i64 %indvars.iv.i.i
  %15 = load ptr, ptr %3, align 8, !tbaa !15
  %16 = getelementptr inbounds nuw %struct.b3Int4, ptr %15, i64 %indvars.iv.i.i
  tail call void @llvm.memcpy.p0.p0.i64(ptr noundef nonnull align 16 dereferenceable(16) %14, ptr noundef nonnull align 16 dereferenceable(16) %16, i64 16, i1 false), !tbaa.struct !29
  %indvars.iv.next.i.i = add nuw nsw i64 %indvars.iv.i.i, 1
  %exitcond.not.i.i = icmp eq i64 %indvars.iv.next.i.i, %wide.trip.count.i.i
  br i1 %exitcond.not.i.i, label %_ZNK20b3AlignedObjectArrayI6b3Int4E4copyEiiPS0_.exit.i, label %13, !llvm.loop !31

_ZNK20b3AlignedObjectArrayI6b3Int4E4copyEiiPS0_.exit15.i: ; preds = %.noexc
  invoke void (ptr, ...) @b3OutputErrorMessageVarArgsInternal(ptr noundef nonnull @.str, ptr noundef nonnull @.str.1, i32 noundef 301)
          to label %.noexc5 unwind label %23

.noexc5:                                          ; preds = %_ZNK20b3AlignedObjectArrayI6b3Int4E4copyEiiPS0_.exit15.i
  invoke void (ptr, ...) @b3OutputErrorMessageVarArgsInternal(ptr noundef nonnull @.str.2)
          to label %.noexc6 unwind label %23

.noexc6:                                          ; preds = %.noexc5
  store i32 0, ptr %4, align 4, !tbaa !16
  br label %_ZNK20b3AlignedObjectArrayI6b3Int4E4copyEiiPS0_.exit.i

_ZNK20b3AlignedObjectArrayI6b3Int4E4copyEiiPS0_.exit.i: ; preds = %13, %.noexc6, %.split.i
  %.0.i = phi i32 [ 0, %.noexc6 ], [ 2, %.split.i ], [ 2, %13 ]
  %17 = load ptr, ptr %3, align 8, !tbaa !15
  %.not.i16.i = icmp eq ptr %17, null
  br i1 %.not.i16.i, label %22, label %18

18:                                               ; preds = %_ZNK20b3AlignedObjectArrayI6b3Int4E4copyEiiPS0_.exit.i
  %19 = load i8, ptr %2, align 8, !tbaa !7, !range !33, !noundef !34
  %20 = trunc nuw i8 %19 to i1
  br i1 %20, label %21, label %22

21:                                               ; preds = %18
  invoke void @_Z21b3AlignedFreeInternalPv(ptr noundef nonnull %17)
          to label %22 unwind label %23

22:                                               ; preds = %21, %18, %_ZNK20b3AlignedObjectArrayI6b3Int4E4copyEiiPS0_.exit.i
  store i8 1, ptr %2, align 8, !tbaa !7
  store ptr %9, ptr %3, align 8, !tbaa !15
  store i32 %.0.i, ptr %5, align 8, !tbaa !17
  ret void

23:                                               ; preds = %21, %.noexc5, %_ZNK20b3AlignedObjectArrayI6b3Int4E4copyEiiPS0_.exit15.i, %1
  %24 = landingpad { ptr, i32 }
          cleanup
  %25 = getelementptr inbounds nuw i8, ptr %0, i64 8
  tail call void @_ZN20b3AlignedObjectArrayI6b3Int4ED2Ev(ptr noundef nonnull align 8 dereferenceable(25) %25) #14
  resume { ptr, i32 } %24
}